target datalayout = "e-m:e-p270:32:32-p271:32:32-p272:64:64-i64:64-i128:128-f80:128-n8:16:32:64-S128"
target triple = "x86_64-pc-linux-gnu"

%struct.jv = type { i8, i8, i16, i32, %union.anon }
%union.anon = type { ptr }

@.str.2 = private unnamed_addr constant [21 x i8] c"cannot be multiplied\00", align 1
@.str.8 = private unnamed_addr constant [23 x i8] c"%s (%s) and %s (%s) %s\00", align 1

; Function Attrs: nounwind uwtable
define internal { i64, ptr } @type_error2(i64 %0, ptr %1, i64 %2, ptr %3, ptr noundef %4) #0 {
  %6 = alloca %struct.jv, align 8
  %7 = alloca %struct.jv, align 8
  %8 = alloca %struct.jv, align 8
  %9 = alloca ptr, align 8
  %10 = alloca [15 x i8], align 1
  %11 = alloca [15 x i8], align 1
  %12 = alloca ptr, align 8
  %13 = alloca ptr, align 8
  %14 = alloca %struct.jv, align 8
  %15 = getelementptr inbounds nuw { i64, ptr }, ptr %7, i32 0, i32 0
  store i64 %0, ptr %15, align 8
  %16 = getelementptr inbounds nuw { i64, ptr }, ptr %7, i32 0, i32 1
  store ptr %1, ptr %16, align 8
  %17 = getelementptr inbounds nuw { i64, ptr }, ptr %8, i32 0, i32 0
  store i64 %2, ptr %17, align 8
  %18 = getelementptr inbounds nuw { i64, ptr }, ptr %8, i32 0, i32 1
  store ptr %3, ptr %18, align 8
  store ptr %4, ptr %9, align 8, !tbaa !12
  call void @llvm.lifetime.start.p0(i64 15, ptr %10) #10
  call void @llvm.lifetime.start.p0(i64 15, ptr %11) #10
  call void @llvm.lifetime.start.p0(i64 8, ptr %12) #10
  %19 = getelementptr inbounds nuw { i64, ptr }, ptr %7, i32 0, i32 0
  %20 = load i64, ptr %19, align 8
  %21 = getelementptr inbounds nuw { i64, ptr }, ptr %7, i32 0, i32 1
  %22 = load ptr, ptr %21, align 8
  %23 = call i32 @jv_get_kind(i64 %20, ptr %22)
  %24 = call ptr @jv_kind_name(i32 noundef %23)
  store ptr %24, ptr %12, align 8, !tbaa !12
  call void @llvm.lifetime.start.p0(i64 8, ptr %13) #10
  %25 = getelementptr inbounds nuw { i64, ptr }, ptr %8, i32 0, i32 0
  %26 = load i64, ptr %25, align 8
  %27 = getelementptr inbounds nuw { i64, ptr }, ptr %8, i32 0, i32 1
  %28 = load ptr, ptr %27, align 8
  %29 = call i32 @jv_get_kind(i64 %26, ptr %28)
  %30 = call ptr @jv_kind_name(i32 noundef %29)
  store ptr %30, ptr %13, align 8, !tbaa !12
  %31 = load ptr, ptr %12, align 8, !tbaa !12
  %32 = getelementptr inbounds [15 x i8], ptr %10, i64 0, i64 0
  %33 = getelementptr inbounds nuw { i64, ptr }, ptr %7, i32 0, i32 0
  %34 = load i64, ptr %33, align 8
  %35 = getelementptr inbounds nuw { i64, ptr }, ptr %7, i32 0, i32 1
  %36 = load ptr, ptr %35, align 8
  %37 = call ptr @jv_dump_string_trunc(i64 %34, ptr %36, ptr noundef %32, i64 noundef 15)
  %38 = load ptr, ptr %13, align 8, !tbaa !12
  %39 = getelementptr inbounds [15 x i8], ptr %11, i64 0, i64 0
  %40 = getelementptr inbounds nuw { i64, ptr }, ptr %8, i32 0, i32 0
  %41 = load i64, ptr %40, align 8
  %42 = getelementptr inbounds nuw { i64, ptr }, ptr %8, i32 0, i32 1
  %43 = load ptr, ptr %42, align 8
  %44 = call ptr @jv_dump_string_trunc(i64 %41, ptr %43, ptr noundef %39, i64 noundef 15)
  %45 = load ptr, ptr %9, align 8, !tbaa !12
  %46 = call { i64, ptr } (ptr, ...) @jv_string_fmt(ptr noundef @.str.8, ptr noundef %31, ptr noundef %37, ptr noundef %38, ptr noundef %44, ptr noundef %45)
  %47 = getelementptr inbounds nuw { i64, ptr }, ptr %14, i32 0, i32 0
  %48 = extractvalue { i64, ptr } %46, 0
  store i64 %48, ptr %47, align 8
  %49 = getelementptr inbounds nuw { i64, ptr }, ptr %14, i32 0, i32 1
  %50 = extractvalue { i64, ptr } %46, 1
  store ptr %50, ptr %49, align 8
  %51 = getelementptr inbounds nuw { i64, ptr }, ptr %14, i32 0, i32 0
  %52 = load i64, ptr %51, align 8
  %53 = getelementptr inbounds nuw { i64, ptr }, ptr %14, i32 0, i32 1
  %54 = load ptr, ptr %53, align 8
  %55 = call { i64, ptr } @jv_invalid_with_msg(i64 %52, ptr %54)
  %56 = getelementptr inbounds nuw { i64, ptr }, ptr %6, i32 0, i32 0
  %57 = extractvalue { i64, ptr } %55, 0
  store i64 %57, ptr %56, align 8
  %58 = getelementptr inbounds nuw { i64, ptr }, ptr %6, i32 0, i32 1
  %59 = extractvalue { i64, ptr } %55, 1
  store ptr %59, ptr %58, align 8
  call void @llvm.lifetime.end.p0(i64 8, ptr %13) #10
  call void @llvm.lifetime.end.p0(i64 8, ptr %12) #10
  call void @llvm.lifetime.end.p0(i64 15, ptr %11) #10
  call void @llvm.lifetime.end.p0(i64 15, ptr %10) #10
  %60 = load { i64, ptr }, ptr %6, align 8
  ret { i64, ptr } %60
}

; Function Attrs: nounwind uwtable
define dso_local { i64, ptr } @binop_multiply(i64 %0, ptr %1, i64 %2, ptr %3) #0 {
  %5 = alloca %struct.jv, align 8
  %6 = alloca %struct.jv, align 8
  %7 = alloca %struct.jv, align 8
  %8 = alloca i32, align 4
  %9 = alloca i32, align 4
  %10 = alloca i32, align 4
  %11 = alloca %struct.jv, align 8
  %12 = alloca %struct.jv, align 8
  %13 = alloca double, align 8
  %14 = alloca %struct.jv, align 8
  %15 = alloca i32, align 4
  %16 = alloca i64, align 8
  %17 = alloca %struct.jv, align 8
  %18 = alloca %struct.jv, align 8
  %19 = alloca %struct.jv, align 8
  %20 = getelementptr inbounds nuw { i64, ptr }, ptr %6, i32 0, i32 0
  store i64 %0, ptr %20, align 8
  %21 = getelementptr inbounds nuw { i64, ptr }, ptr %6, i32 0, i32 1
  store ptr %1, ptr %21, align 8
  %22 = getelementptr inbounds nuw { i64, ptr }, ptr %7, i32 0, i32 0
  store i64 %2, ptr %22, align 8
  %23 = getelementptr inbounds nuw { i64, ptr }, ptr %7, i32 0, i32 1
  store ptr %3, ptr %23, align 8
  call void @llvm.lifetime.start.p0(i64 4, ptr %8) #10
  %24 = getelementptr inbounds nuw { i64, ptr }, ptr %6, i32 0, i32 0
  %25 = load i64, ptr %24, align 8
  %26 = getelementptr inbounds nuw { i64, ptr }, ptr %6, i32 0, i32 1
  %27 = load ptr, ptr %26, align 8
  %28 = call i32 @jv_get_kind(i64 %25, ptr %27)
  store i32 %28, ptr %8, align 4, !tbaa !10
  call void @llvm.lifetime.start.p0(i64 4, ptr %9) #10
  %29 = getelementptr inbounds nuw { i64, ptr }, ptr %7, i32 0, i32 0
  %30 = load i64, ptr %29, align 8
  %31 = getelementptr inbounds nuw { i64, ptr }, ptr %7, i32 0, i32 1
  %32 = load ptr, ptr %31, align 8
  %33 = call i32 @jv_get_kind(i64 %30, ptr %32)
  store i32 %33, ptr %9, align 4, !tbaa !10
  %34 = load i32, ptr %8, align 4, !tbaa !10
  %35 = icmp eq i32 %34, 4
  br i1 %35, label %36, label %64

36:                                               ; preds = %4
  %37 = load i32, ptr %9, align 4, !tbaa !10
  %38 = icmp eq i32 %37, 4
  br i1 %38, label %39, label %64

39:                                               ; preds = %36
  %40 = getelementptr inbounds nuw { i64, ptr }, ptr %6, i32 0, i32 0
  %41 = load i64, ptr %40, align 8
  %42 = getelementptr inbounds nuw { i64, ptr }, ptr %6, i32 0, i32 1
  %43 = load ptr, ptr %42, align 8
  %44 = call double @jv_number_value(i64 %41, ptr %43)
  %45 = getelementptr inbounds nuw { i64, ptr }, ptr %7, i32 0, i32 0
  %46 = load i64, ptr %45, align 8
  %47 = getelementptr inbounds nuw { i64, ptr }, ptr %7, i32 0, i32 1
  %48 = load ptr, ptr %47, align 8
  %49 = call double @jv_number_value(i64 %46, ptr %48)
  %50 = fmul double %44, %49
  %51 = call { i64, ptr } @jv_number(double noundef %50)
  %52 = getelementptr inbounds nuw { i64, ptr }, ptr %5, i32 0, i32 0
  %53 = extractvalue { i64, ptr } %51, 0
  store i64 %53, ptr %52, align 8
  %54 = getelementptr inbounds nuw { i64, ptr }, ptr %5, i32 0, i32 1
  %55 = extractvalue { i64, ptr } %51, 1
  store ptr %55, ptr %54, align 8
  %56 = getelementptr inbounds nuw { i64, ptr }, ptr %6, i32 0, i32 0
  %57 = load i64, ptr %56, align 8
  %58 = getelementptr inbounds nuw { i64, ptr }, ptr %6, i32 0, i32 1
  %59 = load ptr, ptr %58, align 8
  call void @jv_free(i64 %57, ptr %59)
  %60 = getelementptr inbounds nuw { i64, ptr }, ptr %7, i32 0, i32 0
  %61 = load i64, ptr %60, align 8
  %62 = getelementptr inbounds nuw { i64, ptr }, ptr %7, i32 0, i32 1
  %63 = load ptr, ptr %62, align 8
  call void @jv_free(i64 %61, ptr %63)
  store i32 1, ptr %10, align 4
  br label %192

64:                                               ; preds = %36, %4
  %65 = load i32, ptr %8, align 4, !tbaa !10
  %66 = icmp eq i32 %65, 5
  br i1 %66, label %67, label %70

67:                                               ; preds = %64
  %68 = load i32, ptr %9, align 4, !tbaa !10
  %69 = icmp eq i32 %68, 4
  br i1 %69, label %76, label %70

70:                                               ; preds = %67, %64
  %71 = load i32, ptr %8, align 4, !tbaa !10
  %72 = icmp eq i32 %71, 4
  br i1 %72, label %73, label %158

73:                                               ; preds = %70
  %74 = load i32, ptr %9, align 4, !tbaa !10
  %75 = icmp eq i32 %74, 5
  br i1 %75, label %76, label %158

76:                                               ; preds = %73, %67
  call void @llvm.lifetime.start.p0(i64 16, ptr %11) #10
  call void @llvm.memcpy.p0.p0.i64(ptr align 8 %11, ptr align 8 %6, i64 16, i1 false), !tbaa.struct !4
  call void @llvm.lifetime.start.p0(i64 16, ptr %12) #10
  call void @llvm.memcpy.p0.p0.i64(ptr align 8 %12, ptr align 8 %7, i64 16, i1 false), !tbaa.struct !4
  %77 = load i32, ptr %8, align 4, !tbaa !10
  %78 = icmp eq i32 %77, 4
  br i1 %78, label %79, label %80

79:                                               ; preds = %76
  call void @llvm.memcpy.p0.p0.i64(ptr align 8 %11, ptr align 8 %7, i64 16, i1 false), !tbaa.struct !4
  call void @llvm.memcpy.p0.p0.i64(ptr align 8 %12, ptr align 8 %6, i64 16, i1 false), !tbaa.struct !4
  br label %80

80:                                               ; preds = %79, %76
  call void @llvm.lifetime.start.p0(i64 8, ptr %13) #10
  %81 = getelementptr inbounds nuw { i64, ptr }, ptr %12, i32 0, i32 0
  %82 = load i64, ptr %81, align 8
  %83 = getelementptr inbounds nuw { i64, ptr }, ptr %12, i32 0, i32 1
  %84 = load ptr, ptr %83, align 8
  %85 = call double @jv_number_value(i64 %82, ptr %84)
  store double %85, ptr %13, align 8, !tbaa !20
  %86 = load double, ptr %13, align 8, !tbaa !20
  %87 = fcmp olt double %86, 0.000000e+00
  br i1 %87, label %91, label %88

88:                                               ; preds = %80
  %89 = load double, ptr %13, align 8, !tbaa !20
  %90 = call i1 @llvm.is.fpclass.f64(double %89, i32 3)
  br i1 %90, label %91, label %97

91:                                               ; preds = %88, %80
  call void @llvm.lifetime.start.p0(i64 16, ptr %14) #10
  %92 = call { i64, ptr } @jv_null()
  %93 = getelementptr inbounds nuw { i64, ptr }, ptr %14, i32 0, i32 0
  %94 = extractvalue { i64, ptr } %92, 0
  store i64 %94, ptr %93, align 8
  %95 = getelementptr inbounds nuw { i64, ptr }, ptr %14, i32 0, i32 1
  %96 = extractvalue { i64, ptr } %92, 1
  store ptr %96, ptr %95, align 8
  call void @llvm.memcpy.p0.p0.i64(ptr align 8 %5, ptr align 8 %14, i64 16, i1 false), !tbaa.struct !4
  call void @llvm.lifetime.end.p0(i64 16, ptr %14) #10
  br label %149

97:                                               ; preds = %88
  call void @llvm.lifetime.start.p0(i64 4, ptr %15) #10
  %98 = load double, ptr %13, align 8, !tbaa !20
  %99 = fptosi double %98 to i32
  store i32 %99, ptr %15, align 4, !tbaa !10
  call void @llvm.lifetime.start.p0(i64 8, ptr %16) #10
  %100 = getelementptr inbounds nuw { i64, ptr }, ptr %11, i32 0, i32 0
  %101 = load i64, ptr %100, align 8
  %102 = getelementptr inbounds nuw { i64, ptr }, ptr %11, i32 0, i32 1
  %103 = load ptr, ptr %102, align 8
  %104 = call { i64, ptr } @jv_copy(i64 %101, ptr %103)
  %105 = getelementptr inbounds nuw { i64, ptr }, ptr %17, i32 0, i32 0
  %106 = extractvalue { i64, ptr } %104, 0
  store i64 %106, ptr %105, align 8
  %107 = getelementptr inbounds nuw { i64, ptr }, ptr %17, i32 0, i32 1
  %108 = extractvalue { i64, ptr } %104, 1
  store ptr %108, ptr %107, align 8
  %109 = getelementptr inbounds nuw { i64, ptr }, ptr %17, i32 0, i32 0
  %110 = load i64, ptr %109, align 8
  %111 = getelementptr inbounds nuw { i64, ptr }, ptr %17, i32 0, i32 1
  %112 = load ptr, ptr %111, align 8
  %113 = call i32 @jv_string_length_bytes(i64 %110, ptr %112)
  %114 = sext i32 %113 to i64
  store i64 %114, ptr %16, align 8, !tbaa !22
  call void @llvm.lifetime.start.p0(i64 16, ptr %18) #10
  %115 = load i64, ptr %16, align 8, !tbaa !22
  %116 = load i32, ptr %15, align 4, !tbaa !10
  %117 = sext i32 %116 to i64
  %118 = mul i64 %115, %117
  %119 = trunc i64 %118 to i32
  %120 = call { i64, ptr } @jv_string_empty(i32 noundef %119)
  %121 = getelementptr inbounds nuw { i64, ptr }, ptr %18, i32 0, i32 0
  %122 = extractvalue { i64, ptr } %120, 0
  store i64 %122, ptr %121, align 8
  %123 = getelementptr inbounds nuw { i64, ptr }, ptr %18, i32 0, i32 1
  %124 = extractvalue { i64, ptr } %120, 1
  store ptr %124, ptr %123, align 8
  call void @llvm.memcpy.p0.p0.i64(ptr align 8 %5, ptr align 8 %18, i64 16, i1 false), !tbaa.struct !4
  call void @llvm.lifetime.end.p0(i64 16, ptr %18) #10
  br label %125

125:                                              ; preds = %145, %97
  %126 = load i32, ptr %15, align 4, !tbaa !10
  %127 = icmp sgt i32 %126, 0
  br i1 %127, label %128, label %148

128:                                              ; preds = %125
  call void @llvm.lifetime.start.p0(i64 16, ptr %19) #10
  %129 = getelementptr inbounds nuw { i64, ptr }, ptr %11, i32 0, i32 0
  %130 = load i64, ptr %129, align 8
  %131 = getelementptr inbounds nuw { i64, ptr }, ptr %11, i32 0, i32 1
  %132 = load ptr, ptr %131, align 8
  %133 = call ptr @jv_string_value(i64 %130, ptr %132)
  %134 = load i64, ptr %16, align 8, !tbaa !22
  %135 = trunc i64 %134 to i32
  %136 = getelementptr inbounds nuw { i64, ptr }, ptr %5, i32 0, i32 0
  %137 = load i64, ptr %136, align 8
  %138 = getelementptr inbounds nuw { i64, ptr }, ptr %5, i32 0, i32 1
  %139 = load ptr, ptr %138, align 8
  %140 = call { i64, ptr } @jv_string_append_buf(i64 %137, ptr %139, ptr noundef %133, i32 noundef %135)
  %141 = getelementptr inbounds nuw { i64, ptr }, ptr %19, i32 0, i32 0
  %142 = extractvalue { i64, ptr } %140, 0
  store i64 %142, ptr %141, align 8
  %143 = getelementptr inbounds nuw { i64, ptr }, ptr %19, i32 0, i32 1
  %144 = extractvalue { i64, ptr } %140, 1
  store ptr %144, ptr %143, align 8
  call void @llvm.memcpy.p0.p0.i64(ptr align 8 %5, ptr align 8 %19, i64 16, i1 false), !tbaa.struct !4
  call void @llvm.lifetime.end.p0(i64 16, ptr %19) #10
  br label %145

145:                                              ; preds = %128
  %146 = load i32, ptr %15, align 4, !tbaa !10
  %147 = add nsw i32 %146, -1
  store i32 %147, ptr %15, align 4, !tbaa !10
  br label %125, !llvm.loop !24

148:                                              ; preds = %125
  call void @llvm.lifetime.end.p0(i64 8, ptr %16) #10
  call void @llvm.lifetime.end.p0(i64 4, ptr %15) #10
  br label %149

149:                                              ; preds = %148, %91
  %150 = getelementptr inbounds nuw { i64, ptr }, ptr %11, i32 0, i32 0
  %151 = load i64, ptr %150, align 8
  %152 = getelementptr inbounds nuw { i64, ptr }, ptr %11, i32 0, i32 1
  %153 = load ptr, ptr %152, align 8
  call void @jv_free(i64 %151, ptr %153)
  %154 = getelementptr inbounds nuw { i64, ptr }, ptr %12, i32 0, i32 0
  %155 = load i64, ptr %154, align 8
  %156 = getelementptr inbounds nuw { i64, ptr }, ptr %12, i32 0, i32 1
  %157 = load ptr, ptr %156, align 8
  call void @jv_free(i64 %155, ptr %157)
  store i32 1, ptr %10, align 4
  call void @llvm.lifetime.end.p0(i64 8, ptr %13) #10
  call void @llvm.lifetime.end.p0(i64 16, ptr %12) #10
  call void @llvm.lifetime.end.p0(i64 16, ptr %11) #10
  br label %192

158:                                              ; preds = %73, %70
  %159 = load i32, ptr %8, align 4, !tbaa !10
  %160 = icmp eq i32 %159, 7
  br i1 %160, label %161, label %178

161:                                              ; preds = %158
  %162 = load i32, ptr %9, align 4, !tbaa !10
  %163 = icmp eq i32 %162, 7
  br i1 %163, label %164, label %178

164:                                              ; preds = %161
  %165 = getelementptr inbounds nuw { i64, ptr }, ptr %6, i32 0, i32 0
  %166 = load i64, ptr %165, align 8
  %167 = getelementptr inbounds nuw { i64, ptr }, ptr %6, i32 0, i32 1
  %168 = load ptr, ptr %167, align 8
  %169 = getelementptr inbounds nuw { i64, ptr }, ptr %7, i32 0, i32 0
  %170 = load i64, ptr %169, align 8
  %171 = getelementptr inbounds nuw { i64, ptr }, ptr %7, i32 0, i32 1
  %172 = load ptr, ptr %171, align 8
  %173 = call { i64, ptr } @jv_object_merge_recursive(i64 %166, ptr %168, i64 %170, ptr %172)
  %174 = getelementptr inbounds nuw { i64, ptr }, ptr %5, i32 0, i32 0
  %175 = extractvalue { i64, ptr } %173, 0
  store i64 %175, ptr %174, align 8
  %176 = getelementptr inbounds nuw { i64, ptr }, ptr %5, i32 0, i32 1
  %177 = extractvalue { i64, ptr } %173, 1
  store ptr %177, ptr %176, align 8
  store i32 1, ptr %10, align 4
  br label %192

178:                                              ; preds = %161, %158
  %179 = getelementptr inbounds nuw { i64, ptr }, ptr %6, i32 0, i32 0
  %180 = load i64, ptr %179, align 8
  %181 = getelementptr inbounds nuw { i64, ptr }, ptr %6, i32 0, i32 1
  %182 = load ptr, ptr %181, align 8
  %183 = getelementptr inbounds nuw { i64, ptr }, ptr %7, i32 0, i32 0
  %184 = load i64, ptr %183, align 8
  %185 = getelementptr inbounds nuw { i64, ptr }, ptr %7, i32 0, i32 1
  %186 = load ptr, ptr %185, align 8
  %187 = call { i64, ptr } @type_error2(i64 %180, ptr %182, i64 %184, ptr %186, ptr noundef @.str.2)
  %188 = getelementptr inbounds nuw { i64, ptr }, ptr %5, i32 0, i32 0
  %189 = extractvalue { i64, ptr } %187, 0
  store i64 %189, ptr %188, align 8
  %190 = getelementptr inbounds nuw { i64, ptr }, ptr %5, i32 0, i32 1
  %191 = extractvalue { i64, ptr } %187, 1
  store ptr %191, ptr %190, align 8
  store i32 1, ptr %10, align 4
  br label %192

192:                                              ; preds = %178, %164, %149, %39
  call void @llvm.lifetime.end.p0(i64 4, ptr %9) #10
  call void @llvm.lifetime.end.p0(i64 4, ptr %8) #10
  %193 = load { i64, ptr }, ptr %5, align 8
  ret { i64, ptr } %193
}