; Function Attrs: nounwind uwtable
define dso_local { i64, ptr } @binop_multiply(i64 %0, ptr %1, i64 %2, ptr %3) local_unnamed_addr #0 {
  %5 = alloca [15 x i8], align 1
  %6 = alloca [15 x i8], align 1
  %7 = tail call i32 @jv_get_kind(i64 %0, ptr %1) #14
  %8 = tail call i32 @jv_get_kind(i64 %2, ptr %3) #14
  %9 = icmp eq i32 %7, 4
  %10 = icmp eq i32 %8, 4
  %or.cond = select i1 %9, i1 %10, i1 false
  br i1 %or.cond, label %11, label %16

11:                                               ; preds = %4
  %12 = tail call double @jv_number_value(i64 %0, ptr %1) #14
  %13 = tail call double @jv_number_value(i64 %2, ptr %3) #14
  %14 = fmul double %12, %13
  %15 = tail call { i64, ptr } @jv_number(double noundef %14) #14
  tail call void @jv_free(i64 %0, ptr %1) #14
  tail call void @jv_free(i64 %2, ptr %3) #14
  br label %54

16:                                               ; preds = %4
  %17 = icmp eq i32 %7, 5
  %or.cond3 = select i1 %17, i1 %10, i1 false
  %18 = icmp eq i32 %8, 5
  %or.cond5 = select i1 %9, i1 %18, i1 false
  %or.cond70 = select i1 %or.cond3, i1 true, i1 %or.cond5
  br i1 %or.cond70, label %19, label %38

19:                                               ; preds = %16
  br i1 %9, label %20, label %21

20:                                               ; preds = %19
  br label %21

21:                                               ; preds = %20, %19
  %.sroa.019.0 = phi i64 [ %0, %20 ], [ %2, %19 ]
  %.sroa.6.0 = phi ptr [ %1, %20 ], [ %3, %19 ]
  %.sroa.025.0 = phi i64 [ %2, %20 ], [ %0, %19 ]
  %.sroa.7.0 = phi ptr [ %3, %20 ], [ %1, %19 ]
  %22 = tail call double @jv_number_value(i64 %.sroa.019.0, ptr %.sroa.6.0) #14
  %or.cond71 = fcmp ult double %22, 0.000000e+00
  br i1 %or.cond71, label %23, label %25

23:                                               ; preds = %21
  %24 = tail call { i64, ptr } @jv_null() #14
  br label %.loopexit

25:                                               ; preds = %21
  %26 = fptosi double %22 to i32
  %27 = tail call { i64, ptr } @jv_copy(i64 %.sroa.025.0, ptr %.sroa.7.0) #14
  %28 = extractvalue { i64, ptr } %27, 0
  %29 = extractvalue { i64, ptr } %27, 1
  %30 = tail call i32 @jv_string_length_bytes(i64 %28, ptr %29) #14
  %31 = mul i32 %30, %26
  %32 = tail call { i64, ptr } @jv_string_empty(i32 noundef %31) #14
  %33 = icmp sgt i32 %26, 0
  br i1 %33, label %.lr.ph, label %.loopexit

.lr.ph:                                           ; preds = %25, %.lr.ph
  %.pn73 = phi { i64, ptr } [ %35, %.lr.ph ], [ %32, %25 ]
  %.072 = phi i32 [ %36, %.lr.ph ], [ %26, %25 ]
  %.sroa.867.2 = extractvalue { i64, ptr } %.pn73, 1
  %.sroa.065.2 = extractvalue { i64, ptr } %.pn73, 0
  %34 = tail call ptr @jv_string_value(i64 %.sroa.025.0, ptr %.sroa.7.0) #14
  %35 = tail call { i64, ptr } @jv_string_append_buf(i64 %.sroa.065.2, ptr %.sroa.867.2, ptr noundef %34, i32 noundef %30) #14
  %36 = add nsw i32 %.072, -1
  %37 = icmp samesign ugt i32 %.072, 1
  br i1 %37, label %.lr.ph, label %.loopexit, !llvm.loop !7

.loopexit:                                        ; preds = %.lr.ph, %25, %23
  %.merged = phi { i64, ptr } [ %24, %23 ], [ %32, %25 ], [ %35, %.lr.ph ]
  tail call void @jv_free(i64 %.sroa.025.0, ptr %.sroa.7.0) #14
  tail call void @jv_free(i64 %.sroa.019.0, ptr %.sroa.6.0) #14
  br label %54

38:                                               ; preds = %16
  %39 = icmp eq i32 %7, 7
  %40 = icmp eq i32 %8, 7
  %or.cond7 = select i1 %39, i1 %40, i1 false
  br i1 %or.cond7, label %41, label %43

41:                                               ; preds = %38
  %42 = tail call { i64, ptr } @jv_object_merge_recursive(i64 %0, ptr %1, i64 %2, ptr %3) #14
  br label %54

43:                                               ; preds = %38
  call void @llvm.lifetime.start.p0(i64 15, ptr nonnull %5) #14
  call void @llvm.lifetime.start.p0(i64 15, ptr nonnull %6) #14
  %44 = tail call i32 @jv_get_kind(i64 %0, ptr %1) #14
  %45 = tail call ptr @jv_kind_name(i32 noundef %44) #14
  %46 = tail call i32 @jv_get_kind(i64 %2, ptr %3) #14
  %47 = tail call ptr @jv_kind_name(i32 noundef %46) #14
  %48 = call ptr @jv_dump_string_trunc(i64 %0, ptr %1, ptr noundef nonnull %5, i64 noundef 15) #14
  %49 = call ptr @jv_dump_string_trunc(i64 %2, ptr %3, ptr noundef nonnull %6, i64 noundef 15) #14
  %50 = call { i64, ptr } (ptr, ...) @jv_string_fmt(ptr noundef nonnull @.str.8, ptr noundef %45, ptr noundef %48, ptr noundef %47, ptr noundef %49, ptr noundef nonnull @.str.2) #14
  %51 = extractvalue { i64, ptr } %50, 0
  %52 = extractvalue { i64, ptr } %50, 1
  %53 = call { i64, ptr } @jv_invalid_with_msg(i64 %51, ptr %52) #14
  call void @llvm.lifetime.end.p0(i64 15, ptr nonnull %6) #14
  call void @llvm.lifetime.end.p0(i64 15, ptr nonnull %5) #14
  br label %54

54:                                               ; preds = %43, %41, %.loopexit, %11
  %.fca.1.insert.merged = phi { i64, ptr } [ %15, %11 ], [ %.merged, %.loopexit ], [ %42, %41 ], [ %53, %43 ]
  ret { i64, ptr } %.fca.1.insert.merged
}